target datalayout = "e-m:e-p270:32:32-p271:32:32-p272:64:64-i64:64-i128:128-f80:128-n8:16:32:64-S128"
target triple = "x86_64-pc-linux-gnu"

@use_color = internal global i32 -1, align 4
@.str.18 = private unnamed_addr constant [5 x i8] c"TERM\00", align 1
@.str.19 = private unnamed_addr constant [21 x i8] c"AV_LOG_FORCE_NOCOLOR\00", align 1
@.str.20 = private unnamed_addr constant [19 x i8] c"AV_LOG_FORCE_COLOR\00", align 1
@.str.21 = private unnamed_addr constant [22 x i8] c"AV_LOG_FORCE_256COLOR\00", align 1
@.str.22 = private unnamed_addr constant [9 x i8] c"256color\00", align 1

; Function Attrs: nounwind uwtable
define internal void @check_color_terminal() #0 {
  %1 = alloca ptr, align 8
  call void @llvm.lifetime.start.p0(i64 8, ptr %1) #7
  %2 = call ptr @getenv(ptr noundef @.str.18) #7
  store ptr %2, ptr %1, align 8, !tbaa !17
  %3 = call ptr @getenv(ptr noundef @.str.19) #7
  %4 = icmp ne ptr %3, null
  br i1 %4, label %5, label %6

5:                                                ; preds = %0
  store i32 0, ptr @use_color, align 4, !tbaa !16
  br label %20

6:                                                ; preds = %0
  %7 = call ptr @getenv(ptr noundef @.str.20) #7
  %8 = icmp ne ptr %7, null
  br i1 %8, label %9, label %10

9:                                                ; preds = %6
  store i32 1, ptr @use_color, align 4, !tbaa !16
  br label %19

10:                                               ; preds = %6
  %11 = load ptr, ptr %1, align 8, !tbaa !17
  %12 = icmp ne ptr %11, null
  br i1 %12, label %13, label %16

13:                                               ; preds = %10
  %14 = call i32 @isatty(i32 noundef 2) #7
  %15 = icmp ne i32 %14, 0
  br label %16

16:                                               ; preds = %13, %10
  %17 = phi i1 [ false, %10 ], [ %15, %13 ]
  %18 = zext i1 %17 to i32
  store i32 %18, ptr @use_color, align 4, !tbaa !16
  br label %19

19:                                               ; preds = %16, %9
  br label %20

20:                                               ; preds = %19, %5
  %21 = call ptr @getenv(ptr noundef @.str.21) #7
  %22 = icmp ne ptr %21, null
  br i1 %22, label %30, label %23

23:                                               ; preds = %20
  %24 = load ptr, ptr %1, align 8, !tbaa !17
  %25 = icmp ne ptr %24, null
  br i1 %25, label %26, label %33

26:                                               ; preds = %23
  %27 = load ptr, ptr %1, align 8, !tbaa !17
  %28 = call ptr @strstr(ptr noundef %27, ptr noundef @.str.22) #8
  %29 = icmp ne ptr %28, null
  br i1 %29, label %30, label %33

30:                                               ; preds = %26, %20
  %31 = load i32, ptr @use_color, align 4, !tbaa !16
  %32 = mul nsw i32 %31, 256
  store i32 %32, ptr @use_color, align 4, !tbaa !16
  br label %33

33:                                               ; preds = %30, %26, %23
  call void @llvm.lifetime.end.p0(i64 8, ptr %1) #7
  ret void
}

; Function Attrs: nounwind uwtable
define internal void @colored_fputs(i32 noundef %0, i32 noundef %1, ptr noundef %2) #0 {
  %4 = alloca i32, align 4
  %5 = alloca i32, align 4
  %6 = alloca ptr, align 8
  %7 = alloca i32, align 4
  %8 = alloca i32, align 4
  store i32 %0, ptr %4, align 4, !tbaa !16
  store i32 %1, ptr %5, align 4, !tbaa !16
  store ptr %2, ptr %6, align 8, !tbaa !17
  call void @llvm.lifetime.start.p0(i64 4, ptr %7) #7
  %9 = load ptr, ptr %6, align 8, !tbaa !17
  %10 = load i8, ptr %9, align 1, !tbaa !30
  %11 = icmp ne i8 %10, 0
  br i1 %11, label %13, label %12

12:                                               ; preds = %3
  store i32 1, ptr %8, align 4
  br label %28

13:                                               ; preds = %3
  %14 = load i32, ptr @use_color, align 4, !tbaa !16
  %15 = icmp slt i32 %14, 0
  br i1 %15, label %16, label %17

16:                                               ; preds = %13
  call void @check_color_terminal()
  br label %17

17:                                               ; preds = %16, %13
  %18 = load i32, ptr %4, align 4, !tbaa !16
  %19 = icmp eq i32 %18, 4
  br i1 %19, label %20, label %21

20:                                               ; preds = %17
  store i32 0, ptr %7, align 4, !tbaa !16
  br label %23

21:                                               ; preds = %17
  %22 = load i32, ptr @use_color, align 4, !tbaa !16
  store i32 %22, ptr %7, align 4, !tbaa !16
  br label %23

23:                                               ; preds = %21, %20
  %24 = load i32, ptr %4, align 4, !tbaa !16
  %25 = load i32, ptr %5, align 4, !tbaa !16
  %26 = load ptr, ptr %6, align 8, !tbaa !17
  %27 = load i32, ptr %7, align 4, !tbaa !16
  call void @ansi_fputs(i32 noundef %24, i32 noundef %25, ptr noundef %26, i32 noundef %27)
  store i32 0, ptr %8, align 4
  br label %28

28:                                               ; preds = %23, %12
  call void @llvm.lifetime.end.p0(i64 4, ptr %7) #7
  %29 = load i32, ptr %8, align 4
  switch i32 %29, label %31 [
    i32 0, label %30
    i32 1, label %30
  ]

30:                                               ; preds = %28, %28
  ret void

31:                                               ; preds = %28
  unreachable
}