; Function Attrs: nounwind uwtable
define internal fastcc void @colored_fputs(i32 noundef %0, i32 noundef range(i32 0, 256) %1, ptr noundef %2) unnamed_addr #1 {
  %4 = load i8, ptr %2, align 1, !tbaa !27
  %.not = icmp eq i8 %4, 0
  br i1 %.not, label %33, label %5

5:                                                ; preds = %3
  %6 = load i32, ptr @use_color, align 4, !tbaa !17
  %7 = icmp slt i32 %6, 0
  br i1 %7, label %8, label %check_color_terminal.exit

8:                                                ; preds = %5
  %9 = tail call ptr @getenv(ptr noundef nonnull @.str.18) #14
  %10 = tail call ptr @getenv(ptr noundef nonnull @.str.19) #14
  %.not.i = icmp eq ptr %10, null
  br i1 %.not.i, label %12, label %11

11:                                               ; preds = %8
  store i32 0, ptr @use_color, align 4, !tbaa !17
  br label %23

12:                                               ; preds = %8
  %13 = tail call ptr @getenv(ptr noundef nonnull @.str.20) #14
  %.not3.i = icmp eq ptr %13, null
  br i1 %.not3.i, label %15, label %14

14:                                               ; preds = %12
  store i32 1, ptr @use_color, align 4, !tbaa !17
  br label %23

15:                                               ; preds = %12
  %.not4.i = icmp eq ptr %9, null
  br i1 %.not4.i, label %20, label %16

16:                                               ; preds = %15
  %17 = tail call i32 @isatty(i32 noundef 2) #14
  %18 = icmp ne i32 %17, 0
  %19 = zext i1 %18 to i32
  br label %20

20:                                               ; preds = %16, %15
  %21 = phi i32 [ 0, %15 ], [ %19, %16 ]
  store i32 %21, ptr @use_color, align 4, !tbaa !17
  %22 = shl nuw nsw i32 %21, 8
  br label %23

23:                                               ; preds = %20, %14, %11
  %24 = phi i32 [ 1, %14 ], [ %21, %20 ], [ 0, %11 ]
  %25 = phi i32 [ 256, %14 ], [ %22, %20 ], [ 0, %11 ]
  %26 = tail call ptr @getenv(ptr noundef nonnull @.str.21) #14
  %.not5.i = icmp eq ptr %26, null
  br i1 %.not5.i, label %27, label %30

27:                                               ; preds = %23
  %.not6.i = icmp eq ptr %9, null
  br i1 %.not6.i, label %check_color_terminal.exit, label %28

28:                                               ; preds = %27
  %29 = tail call ptr @strstr(ptr noundef nonnull dereferenceable(1) %9, ptr noundef nonnull dereferenceable(1) @.str.22) #15
  %.not7.i = icmp eq ptr %29, null
  br i1 %.not7.i, label %check_color_terminal.exit, label %30

30:                                               ; preds = %28, %23
  store i32 %25, ptr @use_color, align 4, !tbaa !17
  br label %check_color_terminal.exit

check_color_terminal.exit:                        ; preds = %30, %28, %27, %5
  %31 = phi i32 [ %25, %30 ], [ %24, %28 ], [ %24, %27 ], [ %6, %5 ]
  %32 = icmp eq i32 %0, 4
  br i1 %32, label %.split, label %.split6

.split:                                           ; preds = %check_color_terminal.exit
  tail call fastcc void @ansi_fputs(i32 noundef 4, i32 noundef %1, ptr noundef nonnull %2, i32 noundef 0)
  br label %33

.split6:                                          ; preds = %check_color_terminal.exit
  tail call fastcc void @ansi_fputs(i32 noundef %0, i32 noundef %1, ptr noundef nonnull %2, i32 noundef %31)
  br label %33

33:                                               ; preds = %.split, %.split6, %3
  ret void
}